target datalayout = "e-m:e-p270:32:32-p271:32:32-p272:64:64-i64:64-i128:128-f80:128-n8:16:32:64-S128"
target triple = "x86_64-pc-linux-gnu"

%struct.lua_TValue = type { %union.Value, [1 x i32], i32 }
%union.Value = type { ptr }
%struct.LuaTable = type { i8, i8, i8, i8, i8, i8, i8, i8, i32, %union.anon, ptr, ptr, ptr, ptr }
%union.anon = type { i32 }

@luaH_dummynode = dso_local constant { %struct.lua_TValue, { %union.Value, [1 x i32], i8, i8, i8, i8 } } zeroinitializer, align 8

; Function Attrs: mustprogress uwtable
define hidden void @_Z16luaH_resizearrayP9lua_StateP8LuaTablei(ptr noundef %0, ptr noundef %1, i32 noundef %2) #0 {
  %4 = alloca ptr, align 8
  %5 = alloca ptr, align 8
  %6 = alloca i32, align 4
  %7 = alloca i32, align 4
  %8 = alloca i32, align 4
  store ptr %0, ptr %4, align 8, !tbaa !4
  store ptr %1, ptr %5, align 8, !tbaa !9
  store i32 %2, ptr %6, align 4, !tbaa !13
  call void @llvm.lifetime.start.p0(i64 4, ptr %7) #7
  %9 = load ptr, ptr %5, align 8, !tbaa !9
  %10 = getelementptr inbounds nuw %struct.LuaTable, ptr %9, i32 0, i32 12
  %11 = load ptr, ptr %10, align 8, !tbaa !27
  %12 = icmp eq ptr %11, @luaH_dummynode
  br i1 %12, label %13, label %14

13:                                               ; preds = %3
  br label %20

14:                                               ; preds = %3
  %15 = load ptr, ptr %5, align 8, !tbaa !9
  %16 = getelementptr inbounds nuw %struct.LuaTable, ptr %15, i32 0, i32 6
  %17 = load i8, ptr %16, align 2, !tbaa !26
  %18 = zext i8 %17 to i32
  %19 = shl i32 1, %18
  br label %20

20:                                               ; preds = %14, %13
  %21 = phi i32 [ 0, %13 ], [ %19, %14 ]
  store i32 %21, ptr %7, align 4, !tbaa !13
  call void @llvm.lifetime.start.p0(i64 4, ptr %8) #7
  %22 = load ptr, ptr %5, align 8, !tbaa !9
  %23 = load i32, ptr %6, align 4, !tbaa !13
  %24 = call noundef i32 @_ZL11adjustasizeP8LuaTableiPK10lua_TValue(ptr noundef %22, i32 noundef %23, ptr noundef null)
  store i32 %24, ptr %8, align 4, !tbaa !13
  %25 = load ptr, ptr %4, align 8, !tbaa !4
  %26 = load ptr, ptr %5, align 8, !tbaa !9
  %27 = load i32, ptr %8, align 4, !tbaa !13
  %28 = load i32, ptr %7, align 4, !tbaa !13
  call void @_ZL6resizeP9lua_StateP8LuaTableii(ptr noundef %25, ptr noundef %26, i32 noundef %27, i32 noundef %28)
  call void @llvm.lifetime.end.p0(i64 4, ptr %8) #7
  call void @llvm.lifetime.end.p0(i64 4, ptr %7) #7
  ret void
}