; Function Attrs: mustprogress uwtable
define hidden void @_Z16luaH_resizearrayP9lua_StateP8LuaTablei(ptr noundef %0, ptr noundef %1, i32 noundef %2) local_unnamed_addr #0 {
  %4 = getelementptr inbounds nuw i8, ptr %1, i64 32
  %5 = load ptr, ptr %4, align 8, !tbaa !17
  %6 = icmp eq ptr %5, @luaH_dummynode
  br i1 %6, label %12, label %7

7:                                                ; preds = %3
  %8 = getelementptr inbounds nuw i8, ptr %1, i64 6
  %9 = load i8, ptr %8, align 2, !tbaa !22
  %10 = zext nneg i8 %9 to i32
  %11 = shl nuw i32 1, %10
  br label %12

12:                                               ; preds = %3, %7
  %13 = phi i32 [ %11, %7 ], [ 0, %3 ]
  %14 = tail call fastcc noundef i32 @_ZL11adjustasizeP8LuaTableiPK10lua_TValue(ptr noundef nonnull %1, i32 noundef %2, ptr noundef null)
  tail call fastcc void @_ZL6resizeP9lua_StateP8LuaTableii(ptr noundef %0, ptr noundef nonnull %1, i32 noundef %14, i32 noundef %13)
  ret void
}